target datalayout = "e-m:e-p270:32:32-p271:32:32-p272:64:64-i64:64-i128:128-f80:128-n8:16:32:64-S128"
target triple = "x86_64-pc-linux-gnu"

%struct.AvifInfoInternalForward = type { ptr, i64 }

; Function Attrs: nounwind uwtable
define internal ptr @AvifInfoInternalForwardRead(ptr noundef %0, i64 noundef %1) #0 {
  %3 = alloca ptr, align 8
  %4 = alloca ptr, align 8
  %5 = alloca i64, align 8
  %6 = alloca ptr, align 8
  %7 = alloca ptr, align 8
  store ptr %0, ptr %4, align 8
  store i64 %1, ptr %5, align 8
  %8 = load ptr, ptr %4, align 8
  store ptr %8, ptr %6, align 8
  %9 = load i64, ptr %5, align 8
  %10 = load ptr, ptr %6, align 8
  %11 = getelementptr inbounds %struct.AvifInfoInternalForward, ptr %10, i32 0, i32 1
  %12 = load i64, ptr %11, align 8
  %13 = icmp ugt i64 %9, %12
  br i1 %13, label %14, label %15

14:                                               ; preds = %2
  store ptr null, ptr %3, align 8
  br label %30

15:                                               ; preds = %2
  %16 = load ptr, ptr %6, align 8
  %17 = getelementptr inbounds %struct.AvifInfoInternalForward, ptr %16, i32 0, i32 0
  %18 = load ptr, ptr %17, align 8
  store ptr %18, ptr %7, align 8
  %19 = load i64, ptr %5, align 8
  %20 = load ptr, ptr %6, align 8
  %21 = getelementptr inbounds %struct.AvifInfoInternalForward, ptr %20, i32 0, i32 0
  %22 = load ptr, ptr %21, align 8
  %23 = getelementptr inbounds i8, ptr %22, i64 %19
  store ptr %23, ptr %21, align 8
  %24 = load i64, ptr %5, align 8
  %25 = load ptr, ptr %6, align 8
  %26 = getelementptr inbounds %struct.AvifInfoInternalForward, ptr %25, i32 0, i32 1
  %27 = load i64, ptr %26, align 8
  %28 = sub i64 %27, %24
  store i64 %28, ptr %26, align 8
  %29 = load ptr, ptr %7, align 8
  store ptr %29, ptr %3, align 8
  br label %30

30:                                               ; preds = %15, %14
  %31 = load ptr, ptr %3, align 8
  ret ptr %31
}