; Function Attrs: mustprogress nofree norecurse nosync nounwind willreturn memory(argmem: readwrite) uwtable
define internal ptr @AvifInfoInternalForwardRead(ptr nocapture noundef %0, i64 noundef %1) #1 {
  %3 = getelementptr inbounds i8, ptr %0, i64 8
  %4 = load i64, ptr %3, align 8
  %5 = icmp ult i64 %4, %1
  br i1 %5, label %10, label %6

6:                                                ; preds = %2
  %7 = load ptr, ptr %0, align 8
  %8 = getelementptr inbounds i8, ptr %7, i64 %1
  store ptr %8, ptr %0, align 8
  %9 = sub i64 %4, %1
  store i64 %9, ptr %3, align 8
  br label %10

10:                                               ; preds = %2, %6
  %.0 = phi ptr [ %7, %6 ], [ null, %2 ]
  ret ptr %.0
}